; Function Attrs: mustprogress uwtable
define dso_local void @_ZN22btDeformableBodySolver8backupDvEv(ptr noundef nonnull align 8 captures(none) dereferenceable(609) %0) local_unnamed_addr #4 align 2 {
  %2 = getelementptr inbounds nuw i8, ptr %0, i64 28
  %3 = load i32, ptr %2, align 4, !tbaa !30
  %4 = getelementptr inbounds nuw i8, ptr %0, i64 60
  %5 = load i32, ptr %4, align 4, !tbaa !30
  %6 = icmp sgt i32 %3, %5
  br i1 %6, label %7, label %_ZN20btAlignedObjectArrayI9btVector3E6resizeEiRKS0_.exit

7:                                                ; preds = %1
  %8 = getelementptr inbounds nuw i8, ptr %0, i64 64
  %9 = load i32, ptr %8, align 8, !tbaa !31
  %10 = icmp slt i32 %9, %3
  br i1 %10, label %11, label %_ZN20btAlignedObjectArrayI9btVector3E6resizeEiRKS0_.exit

11:                                               ; preds = %7
  %.not.i.i.i = icmp eq i32 %3, 0
  br i1 %.not.i.i.i, label %_ZN20btAlignedObjectArrayI9btVector3E8allocateEi.exit.i.i, label %12

12:                                               ; preds = %11
  %13 = sext i32 %3 to i64
  %14 = shl nsw i64 %13, 4
  %15 = tail call noundef ptr @_Z22btAlignedAllocInternalmi(i64 noundef %14, i32 noundef 16)
  %.pre.i = load i32, ptr %4, align 4, !tbaa !30
  br label %_ZN20btAlignedObjectArrayI9btVector3E8allocateEi.exit.i.i

_ZN20btAlignedObjectArrayI9btVector3E8allocateEi.exit.i.i: ; preds = %12, %11
  %16 = phi i32 [ %.pre.i, %12 ], [ %5, %11 ]
  %.0.i.i.i = phi ptr [ %15, %12 ], [ null, %11 ]
  %17 = icmp sgt i32 %16, 0
  br i1 %17, label %.lr.ph.i.i.i, label %_ZNK20btAlignedObjectArrayI9btVector3E4copyEiiPS0_.exit.i.i

.lr.ph.i.i.i:                                     ; preds = %_ZN20btAlignedObjectArrayI9btVector3E8allocateEi.exit.i.i
  %18 = getelementptr inbounds nuw i8, ptr %0, i64 72
  %wide.trip.count.i.i.i = zext nneg i32 %16 to i64
  br label %19

19:                                               ; preds = %19, %.lr.ph.i.i.i
  %indvars.iv.i.i.i = phi i64 [ 0, %.lr.ph.i.i.i ], [ %indvars.iv.next.i.i.i, %19 ]
  %20 = getelementptr inbounds nuw %class.btVector3, ptr %.0.i.i.i, i64 %indvars.iv.i.i.i
  %21 = load ptr, ptr %18, align 8, !tbaa !29
  %22 = getelementptr inbounds nuw %class.btVector3, ptr %21, i64 %indvars.iv.i.i.i
  tail call void @llvm.memcpy.p0.p0.i64(ptr noundef nonnull align 4 dereferenceable(16) %20, ptr noundef nonnull align 4 dereferenceable(16) %22, i64 16, i1 false), !tbaa.struct !40
  %indvars.iv.next.i.i.i = add nuw nsw i64 %indvars.iv.i.i.i, 1
  %exitcond.not.i.i.i = icmp eq i64 %indvars.iv.next.i.i.i, %wide.trip.count.i.i.i
  br i1 %exitcond.not.i.i.i, label %_ZNK20btAlignedObjectArrayI9btVector3E4copyEiiPS0_.exit.i.i, label %19, !llvm.loop !42

_ZNK20btAlignedObjectArrayI9btVector3E4copyEiiPS0_.exit.i.i: ; preds = %19, %_ZN20btAlignedObjectArrayI9btVector3E8allocateEi.exit.i.i
  %23 = getelementptr inbounds nuw i8, ptr %0, i64 72
  %24 = load ptr, ptr %23, align 8, !tbaa !29
  %.not.i5.i.i = icmp eq ptr %24, null
  br i1 %.not.i5.i.i, label %_ZN20btAlignedObjectArrayI9btVector3E7reserveEi.exit.i, label %25

25:                                               ; preds = %_ZNK20btAlignedObjectArrayI9btVector3E4copyEiiPS0_.exit.i.i
  %26 = getelementptr inbounds nuw i8, ptr %0, i64 80
  %27 = load i8, ptr %26, align 8, !tbaa !28, !range !32, !noundef !33
  %28 = trunc nuw i8 %27 to i1
  br i1 %28, label %29, label %_ZN20btAlignedObjectArrayI9btVector3E7reserveEi.exit.i

29:                                               ; preds = %25
  tail call void @_Z21btAlignedFreeInternalPv(ptr noundef nonnull %24)
  br label %_ZN20btAlignedObjectArrayI9btVector3E7reserveEi.exit.i

_ZN20btAlignedObjectArrayI9btVector3E7reserveEi.exit.i: ; preds = %29, %25, %_ZNK20btAlignedObjectArrayI9btVector3E4copyEiiPS0_.exit.i.i
  %30 = getelementptr inbounds nuw i8, ptr %0, i64 80
  store i8 1, ptr %30, align 8, !tbaa !28
  store ptr %.0.i.i.i, ptr %23, align 8, !tbaa !29
  store i32 %3, ptr %8, align 8, !tbaa !31
  br label %_ZN20btAlignedObjectArrayI9btVector3E6resizeEiRKS0_.exit

_ZN20btAlignedObjectArrayI9btVector3E6resizeEiRKS0_.exit: ; preds = %_ZN20btAlignedObjectArrayI9btVector3E7reserveEi.exit.i, %7, %1
  store i32 %3, ptr %4, align 4, !tbaa !30
  %31 = icmp sgt i32 %3, 0
  br i1 %31, label %.lr.ph, label %._crit_edge

.lr.ph:                                           ; preds = %_ZN20btAlignedObjectArrayI9btVector3E6resizeEiRKS0_.exit
  %32 = getelementptr inbounds nuw i8, ptr %0, i64 40
  %33 = getelementptr inbounds nuw i8, ptr %0, i64 72
  br label %34

._crit_edge:                                      ; preds = %34, %_ZN20btAlignedObjectArrayI9btVector3E6resizeEiRKS0_.exit
  ret void

34:                                               ; preds = %.lr.ph, %34
  %indvars.iv = phi i64 [ 0, %.lr.ph ], [ %indvars.iv.next, %34 ]
  %35 = load ptr, ptr %32, align 8, !tbaa !29
  %36 = getelementptr inbounds nuw %class.btVector3, ptr %35, i64 %indvars.iv
  %37 = load ptr, ptr %33, align 8, !tbaa !29
  %38 = getelementptr inbounds nuw %class.btVector3, ptr %37, i64 %indvars.iv
  tail call void @llvm.memcpy.p0.p0.i64(ptr noundef nonnull align 4 dereferenceable(16) %38, ptr noundef nonnull align 4 dereferenceable(16) %36, i64 16, i1 false), !tbaa.struct !40
  %indvars.iv.next = add nuw nsw i64 %indvars.iv, 1
  %39 = load i32, ptr %4, align 4, !tbaa !30
  %40 = sext i32 %39 to i64
  %41 = icmp slt i64 %indvars.iv.next, %40
  br i1 %41, label %34, label %._crit_edge, !llvm.loop !281
}